(lp1
(lp2
I89
aI24
aI0
aa(lp3
I45
aI13
aI0
aa(lp4
I53
aI8
aI0
aa(lp5
I47
aI6
aI0
aa(lp6
I40
aI12
aI0
aa(lp7
I62
aI16
aI0
aa(lp8
I71
aI24
aI0
aa(lp9
I36
aI4
aI0
aa(lp10
I81
aI19
aI0
aa(lp11
I56
aI10
aI0
aa(lp12
I30
aI3
aI0
aa(lp13
I57
aI18
aI0
aa(lp14
I4
aI0
aI0
aa(lp15
I70
aI13
aI0
aa(lp16
I149
aI67
aI0
aa(lp17
I50
aI23
aI0
aa(lp18
I50
aI9
aI0
aa(lp19
I45
aI7
aI0
aa(lp20
I46
aI3
aI0
aa(lp21
I27
aI6
aI0
aa(lp22
I94
aI15
aI0
aa(lp23
I37
aI3
aI0
aa(lp24
I45
aI7
aI0
aa(lp25
I59
aI10
aI0
aa(lp26
I44
aI0
aI0
aa(lp27
I64
aI16
aI0
aa(lp28
I36
aI11
aI0
aa(lp29
I28
aI3
aI0
aa(lp30
I60
aI14
aI0
aa(lp31
I15
aI0
aI0
aa(lp32
I91
aI29
aI0
aa(lp33
I1
aI0
aI0
aa(lp34
I56
aI3
aI0
aa(lp35
I14
aI5
aI0
aa(lp36
I63
aI5
aI0
aa(lp37
I58
aI16
aI0
aa(lp38
I65
aI13
aI0
aa(lp39
I69
aI8
aI0
aa(lp40
I37
aI0
aI0
aa(lp41
I57
aI24
aI0
aa(lp42
I44
aI13
aI0
aa(lp43
I66
aI11
aI0
aa(lp44
I36
aI17
aI0
aa(lp45
I25
aI1
aI0
aa(lp46
I13
aI0
aI0
aa(lp47
I95
aI8
aI0
aa(lp48
I76
aI37
aI0
aa(lp49
I72
aI24
aI0
aa(lp50
I83
aI18
aI0
aa(lp51
I43
aI4
aI0
aa(lp52
I45
aI6
aI0
aa(lp53
I86
aI18
aI0
aa(lp54
I35
aI4
aI0
aa(lp55
I29
aI7
aI0
aa(lp56
I59
aI10
aI0
aa(lp57
I34
aI3
aI0
aa(lp58
I48
aI4
aI0
aa(lp59
I21
aI0
aI0
aa(lp60
I63
aI5
aI0
aa(lp61
I33
aI2
aI0
aa(lp62
I78
aI14
aI0
aa(lp63
I7
aI1
aI0
aa(lp64
I75
aI24
aI0
aa(lp65
I35
aI4
aI0
aa(lp66
I19
aI3
aI0
aa(lp67
I82
aI21
aI0
aa(lp68
I82
aI8
aI0
aa(lp69
I66
aI13
aI0
aa(lp70
I119
aI24
aI0
aa(lp71
I48
aI6
aI0
aa(lp72
I0
aI0
aI0
aa(lp73
I51
aI9
aI0
aa(lp74
I52
aI12
aI0
aa(lp75
I43
aI8
aI0
aa(lp76
I50
aI5
aI0
aa(lp77
I29
aI2
aI0
aa(lp78
I24
aI2
aI0
aa(lp79
I34
aI3
aI0
aa(lp80
I52
aI5
aI0
aa(lp81
I44
aI10
aI0
aa(lp82
I104
aI27
aI0
aa(lp83
I61
aI2
aI0
aa(lp84
I90
aI21
aI0
aa(lp85
I41
aI3
aI0
aa(lp86
I39
aI2
aI0
aa(lp87
I68
aI27
aI0
aa(lp88
I36
aI0
aI0
aa(lp89
I65
aI28
aI0
aa(lp90
I11
aI0
aI0
aa(lp91
I68
aI3
aI0
aa(lp92
I74
aI18
aI0
aa(lp93
I29
aI0
aI0
aa(lp94
I59
aI9
aI0
aa(lp95
I70
aI19
aI0
aa(lp96
I62
aI4
aI0
aa(lp97
I72
aI23
aI0
aa(lp98
I15
aI0
aI0
aa(lp99
I60
aI13
aI0
aa(lp100
I53
aI9
aI0
aa(lp101
I69
aI11
aI0
aa(lp102
I55
aI12
aI0
aa(lp103
I52
aI12
aI0
aa(lp104
I34
aI2
aI0
aa(lp105
I90
aI34
aI0
aa(lp106
I7
aI1
aI0
aa(lp107
I13
aI0
aI0
aa(lp108
I37
aI4
aI0
aa(lp109
I94
aI20
aI0
aa(lp110
I16
aI0
aI0
aa(lp111
I57
aI9
aI0
aa(lp112
I10
aI1
aI0
aa(lp113
I58
aI7
aI0
aa(lp114
I39
aI9
aI0
aa(lp115
I26
aI0
aI0
aa(lp116
I84
aI19
aI0
aa(lp117
I47
aI7
aI0
aa(lp118
I27
aI9
aI0
aa(lp119
I84
aI15
aI0
aa(lp120
I55
aI3
aI0
aa(lp121
I61
aI10
aI0
aa(lp122
I33
aI13
aI0
aa(lp123
I46
aI4
aI0
aa(lp124
I64
aI12
aI0
aa(lp125
I29
aI3
aI0
aa(lp126
I31
aI7
aI0
aa(lp127
I117
aI36
aI0
aa(lp128
I57
aI4
aI0
aa(lp129
I42
aI6
aI0
aa(lp130
I39
aI5
aI0
aa(lp131
I7
aI1
aI0
aa(lp132
I84
aI23
aI0
aa(lp133
I43
aI12
aI0
aa(lp134
I76
aI9
aI0
aa(lp135
I42
aI8
aI0
aa(lp136
I35
aI4
aI0
aa(lp137
I62
aI12
aI0
aa(lp138
I100
aI31
aI0
aa(lp139
I69
aI20
aI0
aa(lp140
I54
aI12
aI0
aa(lp141
I62
aI14
aI0
aa(lp142
I81
aI16
aI0
aa(lp143
I25
aI2
aI0
aa(lp144
I28
aI8
aI0
aa(lp145
I49
aI8
aI0
aa(lp146
I24
aI0
aI0
aa(lp147
I60
aI12
aI0
aa(lp148
I63
aI12
aI0
aa(lp149
I48
aI9
aI0
aa(lp150
I13
aI0
aI0
aa(lp151
I26
aI0
aI0
aa(lp152
I64
aI9
aI0
aa(lp153
I33
aI5
aI0
aa(lp154
I80
aI25
aI0
aa(lp155
I56
aI22
aI0
aa(lp156
I57
aI10
aI0
aa(lp157
I-1
aI-1
aI-1
aa(lp158
I55
aI13
aI0
aa(lp159
I101
aI41
aI0
aa(lp160
I61
aI36
aI0
aa(lp161
I31
aI6
aI0
aa(lp162
I53
aI15
aI0
aa(lp163
I33
aI4
aI0
aa(lp164
I57
aI35
aI0
aa(lp165
I38
aI10
aI0
aa(lp166
I55
aI8
aI0
aa(lp167
I51
aI7
aI0
aa(lp168
I13
aI2
aI0
aa(lp169
I101
aI35
aI0
aa(lp170
I41
aI12
aI0
aa(lp171
I47
aI9
aI0
aa(lp172
I48
aI13
aI0
aa(lp173
I58
aI18
aI0
aa(lp174
I46
aI15
aI0
aa(lp175
I54
aI8
aI0
aa(lp176
I76
aI17
aI0
aa(lp177
I38
aI6
aI0
aa(lp178
I45
aI8
aI0
aa(lp179
I63
aI11
aI0
aa(lp180
I74
aI23
aI0
aa(lp181
I42
aI11
aI0
aa(lp182
I47
aI15
aI0
aa(lp183
I72
aI18
aI0
aa(lp184
I64
aI20
aI0
aa(lp185
I34
aI2
aI0
aa(lp186
I35
aI3
aI0
aa(lp187
I47
aI8
aI0
aa(lp188
I13
aI3
aI0
aa(lp189
I21
aI5
aI0
aa(lp190
I36
aI6
aI0
aa(lp191
I24
aI5
aI0
aa(lp192
I52
aI12
aI0
aa(lp193
I8
aI3
aI0
aa(lp194
I74
aI32
aI0
aa(lp195
I33
aI1
aI0
aa(lp196
I41
aI20
aI0
aa(lp197
I93
aI24
aI0
aa(lp198
I63
aI17
aI0
aa(lp199
I83
aI23
aI0
aa(lp200
I3
aI1
aI0
aa(lp201
I58
aI18
aI0
aa(lp202
I69
aI20
aI0
aa(lp203
I22
aI1
aI0
aa(lp204
I63
aI13
aI0
aa(lp205
I15
aI0
aI0
aa(lp206
I60
aI17
aI0
aa(lp207
I89
aI21
aI0
aa(lp208
I24
aI1
aI0
aa(lp209
I59
aI26
aI0
aa(lp210
I42
aI1
aI0
aa(lp211
I90
aI23
aI0
aa(lp212
I63
aI5
aI0
aa(lp213
I68
aI18
aI0
aa(lp214
I16
aI1
aI0
aa(lp215
I51
aI9
aI0
aa(lp216
I53
aI4
aI0
aa(lp217
I117
aI24
aI0
aa(lp218
I90
aI40
aI0
aa(lp219
I41
aI1
aI0
aa(lp220
I26
aI3
aI0
aa(lp221
I11
aI0
aI0
aa(lp222
I69
aI5
aI0
aa(lp223
I126
aI16
aI0
aa(lp224
I31
aI8
aI0
aa(lp225
I41
aI12
aI0
aa(lp226
I33
aI2
aI0
aa(lp227
I63
aI21
aI0
aa(lp228
I39
aI1
aI0
aa(lp229
I20
aI4
aI0
aa(lp230
I96
aI31
aI0
aa(lp231
I27
aI7
aI0
aa(lp232
I25
aI5
aI0
aa(lp233
I59
aI6
aI0
aa(lp234
I20
aI1
aI0
aa(lp235
I83
aI7
aI0
aa(lp236
I66
aI8
aI0
aa(lp237
I82
aI37
aI0
aa(lp238
I96
aI30
aI0
aa(lp239
I88
aI28
aI0
aa(lp240
I13
aI1
aI0
aa(lp241
I72
aI1
aI0
aa(lp242
I27
aI2
aI0
aa(lp243
I54
aI4
aI0
aa(lp244
I46
aI11
aI0
aa(lp245
I21
aI5
aI0
aa(lp246
I72
aI23
aI0
aa(lp247
I62
aI13
aI0
aa(lp248
I102
aI22
aI0
aa(lp249
I18
aI7
aI0
aa(lp250
I67
aI9
aI0
aa(lp251
I49
aI2
aI0
aa(lp252
I71
aI18
aI0
aa(lp253
I91
aI19
aI0
aa(lp254
I18
aI1
aI0
aa(lp255
I19
aI2
aI0
aa(lp256
I54
aI7
aI0
aa(lp257
I34
aI16
aI0
aa(lp258
I59
aI7
aI0
aa(lp259
I6
aI0
aI0
aa(lp260
I41
aI4
aI0
aa(lp261
I51
aI18
aI0
aa(lp262
I87
aI22
aI0
aa(lp263
I56
aI6
aI0
aa(lp264
I7
aI0
aI0
aa(lp265
I62
aI19
aI0
aa(lp266
I16
aI0
aI0
aa(lp267
I69
aI31
aI0
aa(lp268
I63
aI5
aI0
aa(lp269
I35
aI6
aI0
aa(lp270
I33
aI4
aI0
aa(lp271
I35
aI2
aI0
aa(lp272
I56
aI16
aI0
aa(lp273
I91
aI18
aI0
aa(lp274
I70
aI23
aI0
aa(lp275
I17
aI5
aI0
aa(lp276
I73
aI11
aI0
aa(lp277
I103
aI1
aI0
aa(lp278
I33
aI3
aI0
aa(lp279
I36
aI7
aI0
aa(lp280
I43
aI6
aI0
aa(lp281
I28
aI0
aI0
aa(lp282
I57
aI27
aI0
aa(lp283
I33
aI2
aI0
aa(lp284
I46
aI6
aI0
aa(lp285
I31
aI2
aI0
aa(lp286
I83
aI7
aI0
aa(lp287
I39
aI5
aI0
aa(lp288
I14
aI3
aI0
aa(lp289
I34
aI3
aI0
aa(lp290
I47
aI19
aI0
aa(lp291
I67
aI8
aI0
aa(lp292
I52
aI23
aI0
aa(lp293
I44
aI3
aI0
aa(lp294
I109
aI38
aI0
aa(lp295
I31
aI5
aI0
aa(lp296
I49
aI6
aI0
aa(lp297
I109
aI28
aI0
aa(lp298
I63
aI20
aI0
aa(lp299
I75
aI27
aI0
aa(lp300
I37
aI10
aI0
aa(lp301
I52
aI6
aI0
aa(lp302
I71
aI16
aI0
aa(lp303
I78
aI23
aI0
aa(lp304
I31
aI4
aI0
aa(lp305
I31
aI1
aI0
aa(lp306
I46
aI14
aI0
aa(lp307
I63
aI14
aI0
aa(lp308
I57
aI19
aI0
aa(lp309
I50
aI11
aI0
aa(lp310
I25
aI5
aI0
aa(lp311
I51
aI4
aI0
aa(lp312
I78
aI25
aI0
aa(lp313
I57
aI25
aI0
aa(lp314
I46
aI9
aI0
aa(lp315
I27
aI3
aI0
aa(lp316
I28
aI3
aI0
aa(lp317
I54
aI13
aI0
aa(lp318
I71
aI5
aI0
aa(lp319
I57
aI22
aI0
aa(lp320
I51
aI4
aI0
aa(lp321
I71
aI18
aI0
aa(lp322
I20
aI5
aI0
aa(lp323
I6
aI0
aI0
aa(lp324
I43
aI6
aI0
aa(lp325
I15
aI7
aI0
aa(lp326
I93
aI27
aI0
aa(lp327
I79
aI10
aI0
aa(lp328
I64
aI13
aI0
aa(lp329
I25
aI3
aI0
aa(lp330
I28
aI1
aI0
aa(lp331
I34
aI3
aI0
aa(lp332
I13
aI0
aI0
aa(lp333
I30
aI3
aI0
aa(lp334
I87
aI29
aI0
aa(lp335
I39
aI7
aI0
aa(lp336
I24
aI3
aI0
aa(lp337
I61
aI22
aI0
aa(lp338
I25
aI6
aI0
aa(lp339
I26
aI4
aI0
aa(lp340
I78
aI34
aI0
aa(lp341
I4
aI0
aI0
aa(lp342
I33
aI3
aI0
aa(lp343
I36
aI2
aI0
aa(lp344
I56
aI8
aI0
aa(lp345
I71
aI19
aI0
aa(lp346
I58
aI5
aI0
aa(lp347
I77
aI13
aI0
aa(lp348
I78
aI13
aI0
aa(lp349
I50
aI7
aI0
aa(lp350
I69
aI34
aI0
aa(lp351
I69
aI16
aI0
aa(lp352
I40
aI4
aI0
aa(lp353
I16
aI2
aI0
aa(lp354
I20
aI0
aI0
aa(lp355
I37
aI0
aI0
aa(lp356
I57
aI11
aI0
aa(lp357
I34
aI3
aI0
aa(lp358
I50
aI23
aI0
aa(lp359
I41
aI15
aI0
aa(lp360
I99
aI31
aI0
aa(lp361
I37
aI4
aI0
aa(lp362
I36
aI11
aI0
aa(lp363
I119
aI39
aI0
aa(lp364
I74
aI34
aI0
aa(lp365
I30
aI1
aI0
aa(lp366
I65
aI16
aI0
aa(lp367
I30
aI5
aI0
aa(lp368
I40
aI8
aI0
aa(lp369
I78
aI21
aI0
aa(lp370
I31
aI7
aI0
aa(lp371
I39
aI1
aI0
aa(lp372
I18
aI0
aI0
aa(lp373
I19
aI0
aI0
aa(lp374
I41
aI19
aI0
aa(lp375
I24
aI3
aI0
aa(lp376
I55
aI14
aI0
aa(lp377
I31
aI1
aI0
aa(lp378
I84
aI35
aI0
aa(lp379
I29
aI2
aI0
aa(lp380
I78
aI15
aI0
aa(lp381
I163
aI69
aI0
aa(lp382
I39
aI3
aI0
aa(lp383
I6
aI2
aI0
aa(lp384
I86
aI23
aI0
aa(lp385
I11
aI4
aI0
aa(lp386
I36
aI2
aI0
aa(lp387
I1
aI0
aI0
aa(lp388
I74
aI37
aI0
aa(lp389
I71
aI17
aI0
aa(lp390
I59
aI17
aI0
aa(lp391
I56
aI6
aI0
aa(lp392
I108
aI41
aI0
aa(lp393
I37
aI0
aI0
aa(lp394
I29
aI5
aI0
aa(lp395
I118
aI34
aI0
aa(lp396
I55
aI5
aI0
aa(lp397
I79
aI16
aI0
aa(lp398
I32
aI6
aI0
aa(lp399
I47
aI10
aI0
aa(lp400
I29
aI7
aI0
aa(lp401
I47
aI6
aI0
aa(lp402
I35
aI4
aI0
aa(lp403
I56
aI8
aI0
aa(lp404
I70
aI10
aI0
aa(lp405
I55
aI5
aI0
aa(lp406
I24
aI9
aI0
aa(lp407
I31
aI2
aI0
aa(lp408
I37
aI10
aI0
aa(lp409
I41
aI2
aI0
aa(lp410
I78
aI28
aI0
aa(lp411
I63
aI21
aI0
aa(lp412
I42
aI3
aI0
aa(lp413
I85
aI20
aI0
aa(lp414
I64
aI31
aI0
aa(lp415
I38
aI7
aI0
aa(lp416
I43
aI20
aI0
aa(lp417
I68
aI18
aI0
aa(lp418
I63
aI11
aI0
aa(lp419
I86
aI38
aI0
aa(lp420
I49
aI11
aI0
aa(lp421
I46
aI8
aI0
aa(lp422
I27
aI11
aI0
aa(lp423
I52
aI2
aI0
aa(lp424
I87
aI37
aI0
aa(lp425
I40
aI6
aI0
aa(lp426
I87
aI34
aI0
aa(lp427
I84
aI38
aI0
aa(lp428
I85
aI44
aI0
aa(lp429
I35
aI4
aI0
aa(lp430
I48
aI17
aI0
aa(lp431
I82
aI19
aI0
aa(lp432
I39
aI6
aI0
aa(lp433
I34
aI2
aI0
aa(lp434
I32
aI8
aI0
aa(lp435
I34
aI8
aI0
aa(lp436
I59
aI17
aI0
aa(lp437
I45
aI16
aI0
aa(lp438
I94
aI24
aI0
aa(lp439
I39
aI13
aI0
aa(lp440
I41
aI9
aI0
aa(lp441
I67
aI15
aI0
aa(lp442
I58
aI20
aI0
aa(lp443
I31
aI3
aI0
aa(lp444
I27
aI3
aI0
aa(lp445
I95
aI27
aI0
aa(lp446
I97
aI29
aI0
aa(lp447
I46
aI4
aI0
aa(lp448
I40
aI18
aI0
aa(lp449
I55
aI6
aI0
aa(lp450
I64
aI24
aI0
aa(lp451
I47
aI19
aI0
aa(lp452
I48
aI5
aI0
aa(lp453
I70
aI12
aI0
aa(lp454
I47
aI12
aI0
aa(lp455
I33
aI4
aI0
aa(lp456
I21
aI1
aI0
aa(lp457
I34
aI1
aI0
aa(lp458
I47
aI5
aI0
aa(lp459
I138
aI9
aI0
aa(lp460
I29
aI3
aI0
aa(lp461
I56
aI7
aI0
aa(lp462
I68
aI6
aI0
aa(lp463
I90
aI9
aI0
aa(lp464
I62
aI19
aI0
aa(lp465
I32
aI4
aI0
aa(lp466
I79
aI11
aI0
aa(lp467
I39
aI3
aI0
aa(lp468
I37
aI6
aI0
aa(lp469
I22
aI3
aI0
aa(lp470
I144
aI67
aI0
aa(lp471
I32
aI3
aI0
aa(lp472
I74
aI19
aI0
aa(lp473
I40
aI1
aI0
aa(lp474
I46
aI2
aI0
aa(lp475
I56
aI9
aI0
aa(lp476
I64
aI16
aI0
aa(lp477
I20
aI5
aI0
aa(lp478
I40
aI6
aI0
aa(lp479
I55
aI17
aI0
aa(lp480
I54
aI11
aI0
aa(lp481
I21
aI5
aI0
aa(lp482
I78
aI15
aI0
aa(lp483
I37
aI4
aI0
aa(lp484
I13
aI4
aI0
aa(lp485
I91
aI26
aI0
aa(lp486
I52
aI3
aI0
aa(lp487
I101
aI24
aI0
aa(lp488
I0
aI0
aI0
aa(lp489
I42
aI6
aI0
aa(lp490
I76
aI17
aI0
aa(lp491
I44
aI2
aI0
aa.